target datalayout = "e-m:e-p270:32:32-p271:32:32-p272:64:64-i64:64-i128:128-f80:128-n8:16:32:64-S128"
target triple = "x86_64-pc-linux-gnu"

%class.sexpr = type { i32, i32, i32, i32 }
%struct.sexpr_composite = type { %class.sexpr, i32, [0 x ptr] }
%class.sexpr_manager = type { %class.small_object_allocator, %class.ptr_vector }
%class.small_object_allocator = type { [32 x ptr], [32 x ptr], i64 }
%class.ptr_vector = type { %class.vector.3 }
%class.vector.3 = type { ptr }

; Function Attrs: mustprogress nounwind uwtable
define linkonce_odr hidden void @_ZN5sexpr7inc_refEv(ptr noundef nonnull align 4 dereferenceable(16) %0) #4 comdat align 2 {
  %2 = alloca ptr, align 8
  store ptr %0, ptr %2, align 8, !tbaa !3
  %3 = load ptr, ptr %2, align 8
  %4 = getelementptr inbounds nuw %class.sexpr, ptr %3, i32 0, i32 1
  %5 = load i32, ptr %4, align 4, !tbaa !14
  %6 = add i32 %5, 1
  store i32 %6, ptr %4, align 4, !tbaa !14
  ret void
}

; Function Attrs: mustprogress nounwind uwtable
define hidden void @_ZN5sexprC2ENS_6kind_tEjj(ptr noundef nonnull align 4 dereferenceable(16) %0, i32 noundef %1, i32 noundef %2, i32 noundef %3) unnamed_addr #4 align 2 {
  %5 = alloca ptr, align 8
  %6 = alloca i32, align 4
  %7 = alloca i32, align 4
  %8 = alloca i32, align 4
  store ptr %0, ptr %5, align 8, !tbaa !3
  store i32 %1, ptr %6, align 4, !tbaa !8
  store i32 %2, ptr %7, align 4, !tbaa !10
  store i32 %3, ptr %8, align 4, !tbaa !10
  %9 = load ptr, ptr %5, align 8
  %10 = getelementptr inbounds nuw %class.sexpr, ptr %9, i32 0, i32 0
  %11 = load i32, ptr %6, align 4, !tbaa !8
  store i32 %11, ptr %10, align 4, !tbaa !12
  %12 = getelementptr inbounds nuw %class.sexpr, ptr %9, i32 0, i32 1
  store i32 0, ptr %12, align 4, !tbaa !14
  %13 = getelementptr inbounds nuw %class.sexpr, ptr %9, i32 0, i32 2
  %14 = load i32, ptr %7, align 4, !tbaa !10
  store i32 %14, ptr %13, align 4, !tbaa !15
  %15 = getelementptr inbounds nuw %class.sexpr, ptr %9, i32 0, i32 3
  %16 = load i32, ptr %8, align 4, !tbaa !10
  store i32 %16, ptr %15, align 4, !tbaa !16
  ret void
}

; Function Attrs: mustprogress uwtable
define linkonce_odr hidden void @_ZN15sexpr_compositeC2EjPKP5sexprjj(ptr noundef nonnull align 8 dereferenceable(24) %0, i32 noundef %1, ptr noundef %2, i32 noundef %3, i32 noundef %4) unnamed_addr #6 comdat align 2 {
  %6 = alloca ptr, align 8
  %7 = alloca i32, align 4
  %8 = alloca ptr, align 8
  %9 = alloca i32, align 4
  %10 = alloca i32, align 4
  %11 = alloca i32, align 4
  store ptr %0, ptr %6, align 8, !tbaa !65
  store i32 %1, ptr %7, align 4, !tbaa !10
  store ptr %2, ptr %8, align 8, !tbaa !91
  store i32 %3, ptr %9, align 4, !tbaa !10
  store i32 %4, ptr %10, align 4, !tbaa !10
  %12 = load ptr, ptr %6, align 8
  %13 = load i32, ptr %9, align 4, !tbaa !10
  %14 = load i32, ptr %10, align 4, !tbaa !10
  call void @_ZN5sexprC2ENS_6kind_tEjj(ptr noundef nonnull align 4 dereferenceable(16) %12, i32 noundef 0, i32 noundef %13, i32 noundef %14)
  %15 = getelementptr inbounds nuw %struct.sexpr_composite, ptr %12, i32 0, i32 1
  %16 = load i32, ptr %7, align 4, !tbaa !10
  store i32 %16, ptr %15, align 8, !tbaa !27
  call void @llvm.lifetime.start.p0(i64 4, ptr %11) #3
  store i32 0, ptr %11, align 4, !tbaa !10
  br label %17

17:                                               ; preds = %37, %5
  %18 = load i32, ptr %11, align 4, !tbaa !10
  %19 = load i32, ptr %7, align 4, !tbaa !10
  %20 = icmp ult i32 %18, %19
  br i1 %20, label %22, label %21

21:                                               ; preds = %17
  call void @llvm.lifetime.end.p0(i64 4, ptr %11) #3
  br label %40

22:                                               ; preds = %17
  %23 = load ptr, ptr %8, align 8, !tbaa !91
  %24 = load i32, ptr %11, align 4, !tbaa !10
  %25 = zext i32 %24 to i64
  %26 = getelementptr inbounds nuw ptr, ptr %23, i64 %25
  %27 = load ptr, ptr %26, align 8, !tbaa !3
  %28 = getelementptr inbounds nuw %struct.sexpr_composite, ptr %12, i32 0, i32 2
  %29 = load i32, ptr %11, align 4, !tbaa !10
  %30 = zext i32 %29 to i64
  %31 = getelementptr inbounds nuw [0 x ptr], ptr %28, i64 0, i64 %30
  store ptr %27, ptr %31, align 8, !tbaa !3
  %32 = load ptr, ptr %8, align 8, !tbaa !91
  %33 = load i32, ptr %11, align 4, !tbaa !10
  %34 = zext i32 %33 to i64
  %35 = getelementptr inbounds nuw ptr, ptr %32, i64 %34
  %36 = load ptr, ptr %35, align 8, !tbaa !3
  call void @_ZN5sexpr7inc_refEv(ptr noundef nonnull align 4 dereferenceable(16) %36)
  br label %37

37:                                               ; preds = %22
  %38 = load i32, ptr %11, align 4, !tbaa !10
  %39 = add i32 %38, 1
  store i32 %39, ptr %11, align 4, !tbaa !10
  br label %17, !llvm.loop !102

40:                                               ; preds = %21
  ret void
}

; Function Attrs: mustprogress uwtable
define hidden noundef ptr @_ZN13sexpr_manager12mk_compositeEjPKP5sexprjj(ptr noundef nonnull align 8 dereferenceable(528) %0, i32 noundef %1, ptr noundef %2, i32 noundef %3, i32 noundef %4) #6 align 2 {
  %6 = alloca ptr, align 8
  %7 = alloca i32, align 4
  %8 = alloca ptr, align 8
  %9 = alloca i32, align 4
  %10 = alloca i32, align 4
  %11 = alloca ptr, align 8
  store ptr %0, ptr %6, align 8, !tbaa !85
  store i32 %1, ptr %7, align 4, !tbaa !10
  store ptr %2, ptr %8, align 8, !tbaa !91
  store i32 %3, ptr %9, align 4, !tbaa !10
  store i32 %4, ptr %10, align 4, !tbaa !10
  %12 = load ptr, ptr %6, align 8
  call void @llvm.lifetime.start.p0(i64 8, ptr %11) #3
  %13 = getelementptr inbounds nuw %class.sexpr_manager, ptr %12, i32 0, i32 0
  %14 = load i32, ptr %7, align 4, !tbaa !10
  %15 = zext i32 %14 to i64
  %16 = mul i64 %15, 8
  %17 = add i64 24, %16
  %18 = call noundef ptr @_ZN22small_object_allocator8allocateEm(ptr noundef nonnull align 8 dereferenceable(520) %13, i64 noundef %17)
  store ptr %18, ptr %11, align 8, !tbaa !101
  %19 = load ptr, ptr %11, align 8, !tbaa !101
  %20 = load i32, ptr %7, align 4, !tbaa !10
  %21 = load ptr, ptr %8, align 8, !tbaa !91
  %22 = load i32, ptr %9, align 4, !tbaa !10
  %23 = load i32, ptr %10, align 4, !tbaa !10
  call void @_ZN15sexpr_compositeC2EjPKP5sexprjj(ptr noundef nonnull align 8 dereferenceable(24) %19, i32 noundef %20, ptr noundef %21, i32 noundef %22, i32 noundef %23)
  call void @llvm.lifetime.end.p0(i64 8, ptr %11) #3
  ret ptr %19
}