; Function Attrs: mustprogress uwtable
define hidden noundef ptr @_ZN13sexpr_manager12mk_compositeEjPKP5sexprjj(ptr noundef nonnull align 8 dereferenceable(528) %0, i32 noundef %1, ptr noundef readonly captures(none) %2, i32 noundef %3, i32 noundef %4) local_unnamed_addr #7 align 2 {
  %6 = zext i32 %1 to i64
  %7 = shl nuw nsw i64 %6, 3
  %8 = add nuw nsw i64 %7, 24
  %9 = tail call noundef ptr @_ZN22small_object_allocator8allocateEm(ptr noundef nonnull align 8 dereferenceable(520) %0, i64 noundef %8)
  store i32 0, ptr %9, align 4, !tbaa !3
  %10 = getelementptr inbounds nuw i8, ptr %9, i64 4
  store i32 0, ptr %10, align 4, !tbaa !9
  %11 = getelementptr inbounds nuw i8, ptr %9, i64 8
  store i32 %3, ptr %11, align 4, !tbaa !10
  %12 = getelementptr inbounds nuw i8, ptr %9, i64 12
  store i32 %4, ptr %12, align 4, !tbaa !11
  %13 = getelementptr inbounds nuw i8, ptr %9, i64 16
  store i32 %1, ptr %13, align 8, !tbaa !22
  %.not.i = icmp eq i32 %1, 0
  br i1 %.not.i, label %_ZN15sexpr_compositeC2EjPKP5sexprjj.exit, label %.lr.ph.i

.lr.ph.i:                                         ; preds = %5
  %14 = getelementptr inbounds nuw i8, ptr %9, i64 24
  br label %15

15:                                               ; preds = %15, %.lr.ph.i
  %indvars.iv.i = phi i64 [ 0, %.lr.ph.i ], [ %indvars.iv.next.i, %15 ]
  %16 = getelementptr inbounds nuw ptr, ptr %2, i64 %indvars.iv.i
  %17 = load ptr, ptr %16, align 8, !tbaa !24
  %18 = getelementptr inbounds nuw [0 x ptr], ptr %14, i64 0, i64 %indvars.iv.i
  store ptr %17, ptr %18, align 8, !tbaa !24
  %19 = getelementptr inbounds nuw i8, ptr %17, i64 4
  %20 = load i32, ptr %19, align 4, !tbaa !9
  %21 = add i32 %20, 1
  store i32 %21, ptr %19, align 4, !tbaa !9
  %indvars.iv.next.i = add nuw nsw i64 %indvars.iv.i, 1
  %exitcond.not.i = icmp eq i64 %indvars.iv.next.i, %6
  br i1 %exitcond.not.i, label %_ZN15sexpr_compositeC2EjPKP5sexprjj.exit, label %15, !llvm.loop !91

_ZN15sexpr_compositeC2EjPKP5sexprjj.exit:         ; preds = %15, %5
  ret ptr %9
}